; Function Attrs: nounwind sspstrong uwtable
define dso_local range(i32 -1, 1) i32 @qcrypto_afsplit_encode(i32 noundef %hash, i64 noundef %blocklen, i32 noundef %stripes, ptr noundef readonly captures(none) %in, ptr noundef %out, ptr noundef %errp) local_unnamed_addr #0 {
entry:
  %call = tail call noalias ptr @g_malloc0_n(i64 noundef %blocklen, i64 noundef 1) #6
  %sub = add i32 %stripes, -1
  %conv = zext i32 %sub to i64
  %cmp29.not = icmp eq i32 %sub, 0
  br i1 %cmp29.not, label %for.end, label %for.body.lr.ph

for.body.lr.ph:                                   ; preds = %entry
  %cmp6.not.i = icmp eq i64 %blocklen, 0
  br i1 %cmp6.not.i, label %for.body.us, label %for.body

for.body.us:                                      ; preds = %for.body.lr.ph, %for.inc.us
  %i.030.us = phi i64 [ %inc.us, %for.inc.us ], [ 0, %for.body.lr.ph ]
  %call2.us = tail call i32 @qcrypto_random_bytes(ptr noundef %out, i64 noundef 0, ptr noundef %errp) #7
  %cmp3.us = icmp slt i32 %call2.us, 0
  br i1 %cmp3.us, label %cleanup, label %if.end.us

if.end.us:                                        ; preds = %for.body.us
  %call7.us = tail call fastcc i32 @qcrypto_afsplit_hash(i32 noundef %hash, i64 noundef 0, ptr noundef %call, ptr noundef %errp)
  %cmp8.us = icmp slt i32 %call7.us, 0
  br i1 %cmp8.us, label %cleanup, label %for.inc.us

for.inc.us:                                       ; preds = %if.end.us
  %inc.us = add nuw nsw i64 %i.030.us, 1
  %exitcond34.not = icmp eq i64 %inc.us, %conv
  br i1 %exitcond34.not, label %for.end, label %for.body.us, !llvm.loop !5

for.body:                                         ; preds = %for.body.lr.ph, %for.inc
  %i.030 = phi i64 [ %inc, %for.inc ], [ 0, %for.body.lr.ph ]
  %mul = mul i64 %i.030, %blocklen
  %add.ptr = getelementptr i8, ptr %out, i64 %mul
  %call2 = tail call i32 @qcrypto_random_bytes(ptr noundef %add.ptr, i64 noundef %blocklen, ptr noundef %errp) #7
  %cmp3 = icmp slt i32 %call2, 0
  br i1 %cmp3, label %cleanup, label %for.body.i

for.body.i:                                       ; preds = %for.body, %for.body.i
  %i.07.i = phi i64 [ %inc.i, %for.body.i ], [ 0, %for.body ]
  %arrayidx.i = getelementptr i8, ptr %add.ptr, i64 %i.07.i
  %0 = load i8, ptr %arrayidx.i, align 1
  %arrayidx1.i = getelementptr i8, ptr %call, i64 %i.07.i
  %1 = load i8, ptr %arrayidx1.i, align 1
  %xor5.i = xor i8 %1, %0
  store i8 %xor5.i, ptr %arrayidx1.i, align 1
  %inc.i = add nuw i64 %i.07.i, 1
  %exitcond.not.i = icmp eq i64 %inc.i, %blocklen
  br i1 %exitcond.not.i, label %qcrypto_afsplit_xor.exit.loopexit, label %for.body.i, !llvm.loop !7

qcrypto_afsplit_xor.exit.loopexit:                ; preds = %for.body.i
  %call7 = tail call fastcc i32 @qcrypto_afsplit_hash(i32 noundef %hash, i64 noundef %blocklen, ptr noundef nonnull %call, ptr noundef %errp)
  %cmp8 = icmp slt i32 %call7, 0
  br i1 %cmp8, label %cleanup, label %for.inc

for.inc:                                          ; preds = %qcrypto_afsplit_xor.exit.loopexit
  %inc = add nuw nsw i64 %i.030, 1
  %exitcond.not = icmp eq i64 %inc, %conv
  br i1 %exitcond.not, label %for.body.i16.preheader, label %for.body, !llvm.loop !5

for.end:                                          ; preds = %for.inc.us, %entry
  %cmp6.not.i15 = icmp eq i64 %blocklen, 0
  br i1 %cmp6.not.i15, label %cleanup, label %for.body.i16.preheader

for.body.i16.preheader:                           ; preds = %for.inc, %for.end
  %mul1236.pn = mul i64 %blocklen, %conv
  %add.ptr1339 = getelementptr i8, ptr %out, i64 %mul1236.pn
  br label %for.body.i16

for.body.i16:                                     ; preds = %for.body.i16.preheader, %for.body.i16
  %i.07.i17 = phi i64 [ %inc.i22, %for.body.i16 ], [ 0, %for.body.i16.preheader ]
  %arrayidx.i18 = getelementptr i8, ptr %in, i64 %i.07.i17
  %2 = load i8, ptr %arrayidx.i18, align 1
  %arrayidx1.i19 = getelementptr i8, ptr %call, i64 %i.07.i17
  %3 = load i8, ptr %arrayidx1.i19, align 1
  %xor5.i20 = xor i8 %3, %2
  %arrayidx4.i21 = getelementptr i8, ptr %add.ptr1339, i64 %i.07.i17
  store i8 %xor5.i20, ptr %arrayidx4.i21, align 1
  %inc.i22 = add nuw i64 %i.07.i17, 1
  %exitcond.not.i23 = icmp eq i64 %inc.i22, %blocklen
  br i1 %exitcond.not.i23, label %cleanup, label %for.body.i16, !llvm.loop !7

cleanup:                                          ; preds = %for.body, %qcrypto_afsplit_xor.exit.loopexit, %if.end.us, %for.body.us, %for.body.i16, %for.end
  %retval.0 = phi i32 [ 0, %for.end ], [ 0, %for.body.i16 ], [ -1, %for.body.us ], [ -1, %if.end.us ], [ -1, %qcrypto_afsplit_xor.exit.loopexit ], [ -1, %for.body ]
  tail call void @g_free(ptr noundef %call) #7
  ret i32 %retval.0
}